target datalayout = "e-m:e-p270:32:32-p271:32:32-p272:64:64-i64:64-i128:128-f80:128-n8:16:32:64-S128"
target triple = "x86_64-pc-linux-gnu"

%struct.stbi_io_callbacks = type { ptr, ptr, ptr }
%struct.stbi__context = type { i32, i32, i32, i32, %struct.stbi_io_callbacks, ptr, i32, i32, [128 x i8], i32, ptr, ptr, ptr, ptr }
%struct.stbi__jpeg = type { ptr, [4 x %struct.stbi__huffman], [4 x %struct.stbi__huffman], [4 x [64 x i16]], [4 x [512 x i16]], i32, i32, i32, i32, i32, i32, [4 x %struct.anon], i32, i32, i8, i32, i32, i32, i32, i32, i32, i32, i32, i32, i32, i32, [4 x i32], i32, i32, ptr, ptr, ptr }
%struct.stbi__huffman = type { [512 x i8], [256 x i16], [256 x i8], [257 x i8], [18 x i32], [17 x i32] }
%struct.anon = type { i32, i32, i32, i32, i32, i32, i32, i32, i32, i32, i32, ptr, ptr, ptr, ptr, ptr, i32, i32 }

; Function Attrs: nounwind uwtable
define void @stbi__jpeg_dequantize(ptr noundef %0, ptr noundef %1) #0 {
  %3 = alloca ptr, align 8
  %4 = alloca ptr, align 8
  %5 = alloca i32, align 4
  store ptr %0, ptr %3, align 8, !tbaa !71
  store ptr %1, ptr %4, align 8, !tbaa !71
  call void @llvm.lifetime.start.p0(i64 4, ptr %5) #13
  store i32 0, ptr %5, align 4, !tbaa !9
  br label %6

6:                                                ; preds = %24, %2
  %7 = load i32, ptr %5, align 4, !tbaa !9
  %8 = icmp slt i32 %7, 64
  br i1 %8, label %9, label %27

9:                                                ; preds = %6
  %10 = load ptr, ptr %4, align 8, !tbaa !71
  %11 = load i32, ptr %5, align 4, !tbaa !9
  %12 = sext i32 %11 to i64
  %13 = getelementptr inbounds i16, ptr %10, i64 %12
  %14 = load i16, ptr %13, align 2, !tbaa !73
  %15 = zext i16 %14 to i32
  %16 = load ptr, ptr %3, align 8, !tbaa !71
  %17 = load i32, ptr %5, align 4, !tbaa !9
  %18 = sext i32 %17 to i64
  %19 = getelementptr inbounds i16, ptr %16, i64 %18
  %20 = load i16, ptr %19, align 2, !tbaa !73
  %21 = sext i16 %20 to i32
  %22 = mul nsw i32 %21, %15
  %23 = trunc i32 %22 to i16
  store i16 %23, ptr %19, align 2, !tbaa !73
  br label %24

24:                                               ; preds = %9
  %25 = load i32, ptr %5, align 4, !tbaa !9
  %26 = add nsw i32 %25, 1
  store i32 %26, ptr %5, align 4, !tbaa !9
  br label %6, !llvm.loop !208

27:                                               ; preds = %6
  call void @llvm.lifetime.end.p0(i64 4, ptr %5) #13
  ret void
}

; Function Attrs: nounwind uwtable
define void @stbi__jpeg_finish(ptr noundef %0) #0 {
  %2 = alloca ptr, align 8
  %3 = alloca i32, align 4
  %4 = alloca i32, align 4
  %5 = alloca i32, align 4
  %6 = alloca i32, align 4
  %7 = alloca i32, align 4
  %8 = alloca ptr, align 8
  store ptr %0, ptr %2, align 8, !tbaa !3
  %9 = load ptr, ptr %2, align 8, !tbaa !3
  %10 = getelementptr inbounds nuw %struct.stbi__jpeg, ptr %9, i32 0, i32 16
  %11 = load i32, ptr %10, align 8, !tbaa !178
  %12 = icmp ne i32 %11, 0
  br i1 %12, label %13, label %131

13:                                               ; preds = %1
  call void @llvm.lifetime.start.p0(i64 4, ptr %3) #13
  call void @llvm.lifetime.start.p0(i64 4, ptr %4) #13
  call void @llvm.lifetime.start.p0(i64 4, ptr %5) #13
  store i32 0, ptr %5, align 4, !tbaa !9
  br label %14

14:                                               ; preds = %127, %13
  %15 = load i32, ptr %5, align 4, !tbaa !9
  %16 = load ptr, ptr %2, align 8, !tbaa !3
  %17 = getelementptr inbounds nuw %struct.stbi__jpeg, ptr %16, i32 0, i32 0
  %18 = load ptr, ptr %17, align 8, !tbaa !86
  %19 = getelementptr inbounds nuw %struct.stbi__context, ptr %18, i32 0, i32 2
  %20 = load i32, ptr %19, align 8, !tbaa !50
  %21 = icmp slt i32 %15, %20
  br i1 %21, label %22, label %130

22:                                               ; preds = %14
  call void @llvm.lifetime.start.p0(i64 4, ptr %6) #13
  %23 = load ptr, ptr %2, align 8, !tbaa !3
  %24 = getelementptr inbounds nuw %struct.stbi__jpeg, ptr %23, i32 0, i32 11
  %25 = load i32, ptr %5, align 4, !tbaa !9
  %26 = sext i32 %25 to i64
  %27 = getelementptr inbounds [4 x %struct.anon], ptr %24, i64 0, i64 %26
  %28 = getelementptr inbounds nuw %struct.anon, ptr %27, i32 0, i32 7
  %29 = load i32, ptr %28, align 4, !tbaa !180
  %30 = add nsw i32 %29, 7
  %31 = ashr i32 %30, 3
  store i32 %31, ptr %6, align 4, !tbaa !9
  call void @llvm.lifetime.start.p0(i64 4, ptr %7) #13
  %32 = load ptr, ptr %2, align 8, !tbaa !3
  %33 = getelementptr inbounds nuw %struct.stbi__jpeg, ptr %32, i32 0, i32 11
  %34 = load i32, ptr %5, align 4, !tbaa !9
  %35 = sext i32 %34 to i64
  %36 = getelementptr inbounds [4 x %struct.anon], ptr %33, i64 0, i64 %35
  %37 = getelementptr inbounds nuw %struct.anon, ptr %36, i32 0, i32 8
  %38 = load i32, ptr %37, align 8, !tbaa !181
  %39 = add nsw i32 %38, 7
  %40 = ashr i32 %39, 3
  store i32 %40, ptr %7, align 4, !tbaa !9
  store i32 0, ptr %4, align 4, !tbaa !9
  br label %41

41:                                               ; preds = %123, %22
  %42 = load i32, ptr %4, align 4, !tbaa !9
  %43 = load i32, ptr %7, align 4, !tbaa !9
  %44 = icmp slt i32 %42, %43
  br i1 %44, label %45, label %126

45:                                               ; preds = %41
  store i32 0, ptr %3, align 4, !tbaa !9
  br label %46

46:                                               ; preds = %119, %45
  %47 = load i32, ptr %3, align 4, !tbaa !9
  %48 = load i32, ptr %6, align 4, !tbaa !9
  %49 = icmp slt i32 %47, %48
  br i1 %49, label %50, label %122

50:                                               ; preds = %46
  call void @llvm.lifetime.start.p0(i64 8, ptr %8) #13
  %51 = load ptr, ptr %2, align 8, !tbaa !3
  %52 = getelementptr inbounds nuw %struct.stbi__jpeg, ptr %51, i32 0, i32 11
  %53 = load i32, ptr %5, align 4, !tbaa !9
  %54 = sext i32 %53 to i64
  %55 = getelementptr inbounds [4 x %struct.anon], ptr %52, i64 0, i64 %54
  %56 = getelementptr inbounds nuw %struct.anon, ptr %55, i32 0, i32 15
  %57 = load ptr, ptr %56, align 8, !tbaa !199
  %58 = load i32, ptr %3, align 4, !tbaa !9
  %59 = load i32, ptr %4, align 4, !tbaa !9
  %60 = load ptr, ptr %2, align 8, !tbaa !3
  %61 = getelementptr inbounds nuw %struct.stbi__jpeg, ptr %60, i32 0, i32 11
  %62 = load i32, ptr %5, align 4, !tbaa !9
  %63 = sext i32 %62 to i64
  %64 = getelementptr inbounds [4 x %struct.anon], ptr %61, i64 0, i64 %63
  %65 = getelementptr inbounds nuw %struct.anon, ptr %64, i32 0, i32 16
  %66 = load i32, ptr %65, align 8, !tbaa !200
  %67 = mul nsw i32 %59, %66
  %68 = add nsw i32 %58, %67
  %69 = mul nsw i32 64, %68
  %70 = sext i32 %69 to i64
  %71 = getelementptr inbounds i16, ptr %57, i64 %70
  store ptr %71, ptr %8, align 8, !tbaa !71
  %72 = load ptr, ptr %8, align 8, !tbaa !71
  %73 = load ptr, ptr %2, align 8, !tbaa !3
  %74 = getelementptr inbounds nuw %struct.stbi__jpeg, ptr %73, i32 0, i32 3
  %75 = load ptr, ptr %2, align 8, !tbaa !3
  %76 = getelementptr inbounds nuw %struct.stbi__jpeg, ptr %75, i32 0, i32 11
  %77 = load i32, ptr %5, align 4, !tbaa !9
  %78 = sext i32 %77 to i64
  %79 = getelementptr inbounds [4 x %struct.anon], ptr %76, i64 0, i64 %78
  %80 = getelementptr inbounds nuw %struct.anon, ptr %79, i32 0, i32 3
  %81 = load i32, ptr %80, align 4, !tbaa !184
  %82 = sext i32 %81 to i64
  %83 = getelementptr inbounds [4 x [64 x i16]], ptr %74, i64 0, i64 %82
  %84 = getelementptr inbounds [64 x i16], ptr %83, i64 0, i64 0
  call void @stbi__jpeg_dequantize(ptr noundef %72, ptr noundef %84)
  %85 = load ptr, ptr %2, align 8, !tbaa !3
  %86 = getelementptr inbounds nuw %struct.stbi__jpeg, ptr %85, i32 0, i32 29
  %87 = load ptr, ptr %86, align 8, !tbaa !185
  %88 = load ptr, ptr %2, align 8, !tbaa !3
  %89 = getelementptr inbounds nuw %struct.stbi__jpeg, ptr %88, i32 0, i32 11
  %90 = load i32, ptr %5, align 4, !tbaa !9
  %91 = sext i32 %90 to i64
  %92 = getelementptr inbounds [4 x %struct.anon], ptr %89, i64 0, i64 %91
  %93 = getelementptr inbounds nuw %struct.anon, ptr %92, i32 0, i32 11
  %94 = load ptr, ptr %93, align 8, !tbaa !186
  %95 = load ptr, ptr %2, align 8, !tbaa !3
  %96 = getelementptr inbounds nuw %struct.stbi__jpeg, ptr %95, i32 0, i32 11
  %97 = load i32, ptr %5, align 4, !tbaa !9
  %98 = sext i32 %97 to i64
  %99 = getelementptr inbounds [4 x %struct.anon], ptr %96, i64 0, i64 %98
  %100 = getelementptr inbounds nuw %struct.anon, ptr %99, i32 0, i32 9
  %101 = load i32, ptr %100, align 4, !tbaa !187
  %102 = load i32, ptr %4, align 4, !tbaa !9
  %103 = mul nsw i32 %101, %102
  %104 = mul nsw i32 %103, 8
  %105 = sext i32 %104 to i64
  %106 = getelementptr inbounds i8, ptr %94, i64 %105
  %107 = load i32, ptr %3, align 4, !tbaa !9
  %108 = mul nsw i32 %107, 8
  %109 = sext i32 %108 to i64
  %110 = getelementptr inbounds i8, ptr %106, i64 %109
  %111 = load ptr, ptr %2, align 8, !tbaa !3
  %112 = getelementptr inbounds nuw %struct.stbi__jpeg, ptr %111, i32 0, i32 11
  %113 = load i32, ptr %5, align 4, !tbaa !9
  %114 = sext i32 %113 to i64
  %115 = getelementptr inbounds [4 x %struct.anon], ptr %112, i64 0, i64 %114
  %116 = getelementptr inbounds nuw %struct.anon, ptr %115, i32 0, i32 9
  %117 = load i32, ptr %116, align 4, !tbaa !187
  %118 = load ptr, ptr %8, align 8, !tbaa !71
  call void %87(ptr noundef %110, i32 noundef %117, ptr noundef %118)
  call void @llvm.lifetime.end.p0(i64 8, ptr %8) #13
  br label %119

119:                                              ; preds = %50
  %120 = load i32, ptr %3, align 4, !tbaa !9
  %121 = add nsw i32 %120, 1
  store i32 %121, ptr %3, align 4, !tbaa !9
  br label %46, !llvm.loop !209

122:                                              ; preds = %46
  br label %123

123:                                              ; preds = %122
  %124 = load i32, ptr %4, align 4, !tbaa !9
  %125 = add nsw i32 %124, 1
  store i32 %125, ptr %4, align 4, !tbaa !9
  br label %41, !llvm.loop !210

126:                                              ; preds = %41
  call void @llvm.lifetime.end.p0(i64 4, ptr %7) #13
  call void @llvm.lifetime.end.p0(i64 4, ptr %6) #13
  br label %127

127:                                              ; preds = %126
  %128 = load i32, ptr %5, align 4, !tbaa !9
  %129 = add nsw i32 %128, 1
  store i32 %129, ptr %5, align 4, !tbaa !9
  br label %14, !llvm.loop !211

130:                                              ; preds = %14
  call void @llvm.lifetime.end.p0(i64 4, ptr %5) #13
  call void @llvm.lifetime.end.p0(i64 4, ptr %4) #13
  call void @llvm.lifetime.end.p0(i64 4, ptr %3) #13
  br label %131

131:                                              ; preds = %130, %1
  ret void
}