; Function Attrs: nounwind uwtable
define void @stbi__jpeg_finish(ptr noundef readonly captures(none) %0) local_unnamed_addr #2 {
  %2 = getelementptr inbounds nuw i8, ptr %0, i64 18480
  %3 = load i32, ptr %2, align 8, !tbaa !173
  %.not = icmp eq i32 %3, 0
  br i1 %.not, label %.loopexit, label %.preheader35

.preheader35:                                     ; preds = %1
  %4 = load ptr, ptr %0, align 8, !tbaa !77
  %5 = getelementptr inbounds nuw i8, ptr %4, i64 8
  %6 = load i32, ptr %5, align 8, !tbaa !50
  %7 = icmp sgt i32 %6, 0
  br i1 %7, label %.lr.ph, label %.loopexit

.lr.ph:                                           ; preds = %.preheader35
  %8 = getelementptr inbounds nuw i8, ptr %0, i64 18080
  %9 = getelementptr inbounds nuw i8, ptr %0, i64 13448
  %10 = getelementptr inbounds nuw i8, ptr %0, i64 18544
  br label %11

11:                                               ; preds = %.lr.ph, %._crit_edge38
  %12 = phi ptr [ %4, %.lr.ph ], [ %57, %._crit_edge38 ]
  %indvars.iv43 = phi i64 [ 0, %.lr.ph ], [ %indvars.iv.next44, %._crit_edge38 ]
  %13 = getelementptr inbounds nuw [4 x %struct.anon], ptr %8, i64 0, i64 %indvars.iv43
  %14 = getelementptr inbounds nuw i8, ptr %13, i64 28
  %15 = load i32, ptr %14, align 4, !tbaa !175
  %16 = add nsw i32 %15, 7
  %17 = ashr i32 %16, 3
  %18 = getelementptr inbounds nuw i8, ptr %13, i64 32
  %19 = load i32, ptr %18, align 8, !tbaa !176
  %20 = add nsw i32 %19, 7
  %21 = ashr i32 %20, 3
  %22 = icmp sgt i32 %21, 0
  br i1 %22, label %.preheader.lr.ph, label %._crit_edge38

.preheader.lr.ph:                                 ; preds = %11
  %23 = icmp sgt i32 %17, 0
  %24 = getelementptr inbounds nuw i8, ptr %13, i64 80
  %25 = getelementptr inbounds nuw i8, ptr %13, i64 88
  %26 = getelementptr inbounds nuw i8, ptr %13, i64 12
  %27 = getelementptr inbounds nuw i8, ptr %13, i64 48
  %28 = getelementptr inbounds nuw i8, ptr %13, i64 36
  br i1 %23, label %.preheader.us.preheader, label %._crit_edge38

.preheader.us.preheader:                          ; preds = %.preheader.lr.ph
  %wide.trip.count = zext nneg i32 %17 to i64
  br label %.preheader.us

.preheader.us:                                    ; preds = %.preheader.us.preheader, %._crit_edge.us
  %.03337.us = phi i32 [ %56, %._crit_edge.us ], [ 0, %.preheader.us.preheader ]
  %29 = shl i32 %.03337.us, 3
  br label %30

30:                                               ; preds = %.preheader.us, %stbi__jpeg_dequantize.exit.us
  %indvars.iv = phi i64 [ 0, %.preheader.us ], [ %indvars.iv.next, %stbi__jpeg_dequantize.exit.us ]
  %31 = load ptr, ptr %24, align 8, !tbaa !193
  %32 = load i32, ptr %25, align 8, !tbaa !194
  %33 = mul nsw i32 %32, %.03337.us
  %34 = trunc nuw nsw i64 %indvars.iv to i32
  %35 = add nsw i32 %33, %34
  %36 = shl nsw i32 %35, 6
  %37 = sext i32 %36 to i64
  %38 = getelementptr inbounds i16, ptr %31, i64 %37
  %39 = load i32, ptr %26, align 4, !tbaa !179
  %40 = sext i32 %39 to i64
  %41 = getelementptr inbounds [4 x [64 x i16]], ptr %9, i64 0, i64 %40
  br label %42

42:                                               ; preds = %42, %30
  %indvars.iv.i.us = phi i64 [ 0, %30 ], [ %indvars.iv.next.i.us, %42 ]
  %43 = getelementptr inbounds nuw i16, ptr %41, i64 %indvars.iv.i.us
  %44 = load i16, ptr %43, align 2, !tbaa !65
  %45 = getelementptr inbounds nuw i16, ptr %38, i64 %indvars.iv.i.us
  %46 = load i16, ptr %45, align 2, !tbaa !65
  %47 = mul i16 %46, %44
  store i16 %47, ptr %45, align 2, !tbaa !65
  %indvars.iv.next.i.us = add nuw nsw i64 %indvars.iv.i.us, 1
  %exitcond.not.i.us = icmp eq i64 %indvars.iv.next.i.us, 64
  br i1 %exitcond.not.i.us, label %stbi__jpeg_dequantize.exit.us, label %42, !llvm.loop !202

stbi__jpeg_dequantize.exit.us:                    ; preds = %42
  %48 = load ptr, ptr %10, align 8, !tbaa !79
  %49 = load ptr, ptr %27, align 8, !tbaa !180
  %50 = load i32, ptr %28, align 4, !tbaa !181
  %51 = mul i32 %29, %50
  %52 = sext i32 %51 to i64
  %53 = getelementptr inbounds i8, ptr %49, i64 %52
  %54 = shl nsw i64 %indvars.iv, 3
  %55 = getelementptr inbounds nuw i8, ptr %53, i64 %54
  tail call void %48(ptr noundef %55, i32 noundef %50, ptr noundef nonnull %38) #37
  %indvars.iv.next = add nuw nsw i64 %indvars.iv, 1
  %exitcond.not = icmp eq i64 %indvars.iv.next, %wide.trip.count
  br i1 %exitcond.not, label %._crit_edge.us, label %30, !llvm.loop !203

._crit_edge.us:                                   ; preds = %stbi__jpeg_dequantize.exit.us
  %56 = add nuw nsw i32 %.03337.us, 1
  %exitcond42.not = icmp eq i32 %56, %21
  br i1 %exitcond42.not, label %._crit_edge38.loopexit, label %.preheader.us, !llvm.loop !204

._crit_edge38.loopexit:                           ; preds = %._crit_edge.us
  %.pre = load ptr, ptr %0, align 8, !tbaa !77
  br label %._crit_edge38

._crit_edge38:                                    ; preds = %.preheader.lr.ph, %._crit_edge38.loopexit, %11
  %57 = phi ptr [ %.pre, %._crit_edge38.loopexit ], [ %12, %11 ], [ %12, %.preheader.lr.ph ]
  %indvars.iv.next44 = add nuw nsw i64 %indvars.iv43, 1
  %58 = getelementptr inbounds nuw i8, ptr %57, i64 8
  %59 = load i32, ptr %58, align 8, !tbaa !50
  %60 = sext i32 %59 to i64
  %61 = icmp slt i64 %indvars.iv.next44, %60
  br i1 %61, label %11, label %.loopexit, !llvm.loop !205

.loopexit:                                        ; preds = %._crit_edge38, %.preheader35, %1
  ret void
}